; Function Attrs: nounwind uwtable
define dso_local void @RM_Log(ptr noundef readonly captures(address_is_null) %0, ptr noundef readonly captures(none) %1, ptr noundef readonly captures(none) %2, ...) #0 {
  %4 = alloca [1 x %struct.__va_list_tag], align 16
  call void @llvm.lifetime.start.p0(i64 24, ptr nonnull %4) #35
  call void @llvm.va_start.p0(ptr nonnull %4)
  %.not = icmp eq ptr %0, null
  br i1 %.not, label %8, label %5

5:                                                ; preds = %3
  %6 = getelementptr inbounds nuw i8, ptr %0, i64 8
  %7 = load ptr, ptr %6, align 8, !tbaa !91
  br label %8

8:                                                ; preds = %3, %5
  %9 = phi ptr [ %7, %5 ], [ null, %3 ]
  call void @moduleLogRaw(ptr noundef %9, ptr noundef %1, ptr noundef %2, ptr noundef nonnull %4)
  call void @llvm.va_end.p0(ptr nonnull %4)
  call void @llvm.lifetime.end.p0(i64 24, ptr nonnull %4) #35
  ret void
}